; Function Attrs: mustprogress nofree norecurse nosync nounwind willreturn memory(read, inaccessiblemem: none) uwtable
define dso_local noundef zeroext i1 @_ZNK4llvm10SSAUpdater16HasValueForBlockEPNS_10BasicBlockE(ptr nocapture noundef nonnull readonly align 8 dereferenceable(56) %0, ptr noundef %1) local_unnamed_addr #4 align 2 {
  %3 = load ptr, ptr %0, align 8
  %4 = load ptr, ptr %3, align 8
  %5 = getelementptr inbounds nuw i8, ptr %3, i64 16
  %6 = load i32, ptr %5, align 8
  %7 = icmp eq i32 %6, 0
  br i1 %7, label %_ZNK4llvm12DenseMapBaseINS_8DenseMapIPNS_10BasicBlockEPNS_5ValueENS_12DenseMapInfoIS3_vEENS_6detail12DenseMapPairIS3_S5_EEEES3_S5_S7_SA_E5countEPKS2_.exit, label %8

8:                                                ; preds = %2
  %9 = ptrtoint ptr %1 to i64
  %10 = trunc i64 %9 to i32
  %11 = lshr i32 %10, 4
  %12 = lshr i32 %10, 9
  %13 = xor i32 %11, %12
  %14 = add i32 %6, -1
  %.01618.i.i.i.i = and i32 %14, %13
  %15 = zext nneg i32 %.01618.i.i.i.i to i64
  %16 = getelementptr inbounds %"struct.llvm::detail::DenseMapPair.83", ptr %4, i64 %15
  %17 = load ptr, ptr %16, align 8
  %18 = icmp eq ptr %1, %17
  br i1 %18, label %_ZNK4llvm12DenseMapBaseINS_8DenseMapIPNS_10BasicBlockEPNS_5ValueENS_12DenseMapInfoIS3_vEENS_6detail12DenseMapPairIS3_S5_EEEES3_S5_S7_SA_E5countEPKS2_.exit, label %.lr.ph.i.i.i.i

.lr.ph.i.i.i.i:                                   ; preds = %8, %20
  %19 = phi ptr [ %25, %20 ], [ %17, %8 ]
  %.01620.i.i.i.i = phi i32 [ %.016.i.i.i.i, %20 ], [ %.01618.i.i.i.i, %8 ]
  %.01519.i.i.i.i = phi i32 [ %21, %20 ], [ 1, %8 ]
  %.not.i.i.not.not = icmp ne ptr %19, inttoptr (i64 -4096 to ptr)
  br i1 %.not.i.i.not.not, label %20, label %_ZNK4llvm12DenseMapBaseINS_8DenseMapIPNS_10BasicBlockEPNS_5ValueENS_12DenseMapInfoIS3_vEENS_6detail12DenseMapPairIS3_S5_EEEES3_S5_S7_SA_E5countEPKS2_.exit

20:                                               ; preds = %.lr.ph.i.i.i.i
  %21 = add i32 %.01519.i.i.i.i, 1
  %22 = add i32 %.01519.i.i.i.i, %.01620.i.i.i.i
  %.016.i.i.i.i = and i32 %22, %14
  %23 = zext i32 %.016.i.i.i.i to i64
  %24 = getelementptr inbounds %"struct.llvm::detail::DenseMapPair.83", ptr %4, i64 %23
  %25 = load ptr, ptr %24, align 8
  %26 = icmp eq ptr %1, %25
  br i1 %26, label %_ZNK4llvm12DenseMapBaseINS_8DenseMapIPNS_10BasicBlockEPNS_5ValueENS_12DenseMapInfoIS3_vEENS_6detail12DenseMapPairIS3_S5_EEEES3_S5_S7_SA_E5countEPKS2_.exit, label %.lr.ph.i.i.i.i, !llvm.loop !6

_ZNK4llvm12DenseMapBaseINS_8DenseMapIPNS_10BasicBlockEPNS_5ValueENS_12DenseMapInfoIS3_vEENS_6detail12DenseMapPairIS3_S5_EEEES3_S5_S7_SA_E5countEPKS2_.exit: ; preds = %.lr.ph.i.i.i.i, %20, %2, %8
  %27 = phi i1 [ false, %2 ], [ true, %8 ], [ %.not.i.i.not.not, %20 ], [ %.not.i.i.not.not, %.lr.ph.i.i.i.i ]
  ret i1 %27
}